target datalayout = "e-m:e-p270:32:32-p271:32:32-p272:64:64-i64:64-i128:128-f80:128-n8:16:32:64-S128"
target triple = "x86_64-pc-linux-gnu"

%struct.UserData = type { i64, double, double, double, double, double }

@.str.30 = private unnamed_addr constant [19 x i8] c"N_VGetArrayPointer\00", align 1
@stderr = external global ptr, align 8
@.str.31 = private unnamed_addr constant [55 x i8] c"\0ASUNDIALS_ERROR: %s() failed - returned NULL pointer\0A\0A\00", align 1
@.str.32 = private unnamed_addr constant [46 x i8] c"\0ASUNDIALS_ERROR: %s() failed with flag = %d\0A\0A\00", align 1
@.str.33 = private unnamed_addr constant [53 x i8] c"\0AMEMORY_ERROR: %s() failed - returned NULL pointer\0A\0A\00", align 1

; Function Attrs: nounwind uwtable
define internal i32 @check_flag(ptr noundef %0, ptr noundef %1, i32 noundef %2) #0 {
  %4 = alloca i32, align 4
  %5 = alloca ptr, align 8
  %6 = alloca ptr, align 8
  %7 = alloca i32, align 4
  %8 = alloca ptr, align 8
  %9 = alloca i32, align 4
  store ptr %0, ptr %5, align 8, !tbaa !24
  store ptr %1, ptr %6, align 8, !tbaa !33
  store i32 %2, ptr %7, align 4, !tbaa !17
  call void @llvm.lifetime.start.p0(i64 8, ptr %8) #5
  %10 = load i32, ptr %7, align 4, !tbaa !17
  %11 = icmp eq i32 %10, 0
  br i1 %11, label %12, label %19

12:                                               ; preds = %3
  %13 = load ptr, ptr %5, align 8, !tbaa !24
  %14 = icmp eq ptr %13, null
  br i1 %14, label %15, label %19

15:                                               ; preds = %12
  %16 = load ptr, ptr @stderr, align 8, !tbaa !31
  %17 = load ptr, ptr %6, align 8, !tbaa !33
  %18 = call i32 (ptr, ptr, ...) @fprintf(ptr noundef %16, ptr noundef @.str.31, ptr noundef %17) #5
  store i32 1, ptr %4, align 4
  store i32 1, ptr %9, align 4
  br label %47

19:                                               ; preds = %12, %3
  %20 = load i32, ptr %7, align 4, !tbaa !17
  %21 = icmp eq i32 %20, 1
  br i1 %21, label %22, label %34

22:                                               ; preds = %19
  %23 = load ptr, ptr %5, align 8, !tbaa !24
  store ptr %23, ptr %8, align 8, !tbaa !35
  %24 = load ptr, ptr %8, align 8, !tbaa !35
  %25 = load i32, ptr %24, align 4, !tbaa !17
  %26 = icmp slt i32 %25, 0
  br i1 %26, label %27, label %33

27:                                               ; preds = %22
  %28 = load ptr, ptr @stderr, align 8, !tbaa !31
  %29 = load ptr, ptr %6, align 8, !tbaa !33
  %30 = load ptr, ptr %8, align 8, !tbaa !35
  %31 = load i32, ptr %30, align 4, !tbaa !17
  %32 = call i32 (ptr, ptr, ...) @fprintf(ptr noundef %28, ptr noundef @.str.32, ptr noundef %29, i32 noundef %31) #5
  store i32 1, ptr %4, align 4
  store i32 1, ptr %9, align 4
  br label %47

33:                                               ; preds = %22
  br label %45

34:                                               ; preds = %19
  %35 = load i32, ptr %7, align 4, !tbaa !17
  %36 = icmp eq i32 %35, 2
  br i1 %36, label %37, label %44

37:                                               ; preds = %34
  %38 = load ptr, ptr %5, align 8, !tbaa !24
  %39 = icmp eq ptr %38, null
  br i1 %39, label %40, label %44

40:                                               ; preds = %37
  %41 = load ptr, ptr @stderr, align 8, !tbaa !31
  %42 = load ptr, ptr %6, align 8, !tbaa !33
  %43 = call i32 (ptr, ptr, ...) @fprintf(ptr noundef %41, ptr noundef @.str.33, ptr noundef %42) #5
  store i32 1, ptr %4, align 4
  store i32 1, ptr %9, align 4
  br label %47

44:                                               ; preds = %37, %34
  br label %45

45:                                               ; preds = %44, %33
  br label %46

46:                                               ; preds = %45
  store i32 0, ptr %4, align 4
  store i32 1, ptr %9, align 4
  br label %47

47:                                               ; preds = %46, %40, %27, %15
  call void @llvm.lifetime.end.p0(i64 8, ptr %8) #5
  %48 = load i32, ptr %4, align 4
  ret i32 %48
}

; Function Attrs: nounwind uwtable
define internal i32 @f_diffusion(double noundef %0, ptr noundef %1, ptr noundef %2, ptr noundef %3) #0 {
  %5 = alloca i32, align 4
  %6 = alloca double, align 8
  %7 = alloca ptr, align 8
  %8 = alloca ptr, align 8
  %9 = alloca ptr, align 8
  %10 = alloca ptr, align 8
  %11 = alloca ptr, align 8
  %12 = alloca i32, align 4
  %13 = alloca ptr, align 8
  %14 = alloca double, align 8
  %15 = alloca i64, align 8
  store double %0, ptr %6, align 8, !tbaa !4
  store ptr %1, ptr %7, align 8, !tbaa !22
  store ptr %2, ptr %8, align 8, !tbaa !22
  store ptr %3, ptr %9, align 8, !tbaa !24
  call void @llvm.lifetime.start.p0(i64 8, ptr %10) #5
  %16 = load ptr, ptr %9, align 8, !tbaa !24
  store ptr %16, ptr %10, align 8, !tbaa !24
  call void @llvm.lifetime.start.p0(i64 8, ptr %11) #5
  store ptr null, ptr %11, align 8, !tbaa !37
  %17 = load ptr, ptr %7, align 8, !tbaa !22
  %18 = call ptr @N_VGetArrayPointer(ptr noundef %17)
  store ptr %18, ptr %11, align 8, !tbaa !37
  %19 = load ptr, ptr %11, align 8, !tbaa !37
  %20 = call i32 @check_flag(ptr noundef %19, ptr noundef @.str.30, i32 noundef 0)
  %21 = icmp ne i32 %20, 0
  br i1 %21, label %22, label %23

22:                                               ; preds = %4
  store i32 1, ptr %5, align 4
  store i32 1, ptr %12, align 4
  br label %119

23:                                               ; preds = %4
  call void @llvm.lifetime.start.p0(i64 8, ptr %13) #5
  store ptr null, ptr %13, align 8, !tbaa !37
  %24 = load ptr, ptr %8, align 8, !tbaa !22
  %25 = call ptr @N_VGetArrayPointer(ptr noundef %24)
  store ptr %25, ptr %13, align 8, !tbaa !37
  %26 = load ptr, ptr %13, align 8, !tbaa !37
  %27 = call i32 @check_flag(ptr noundef %26, ptr noundef @.str.30, i32 noundef 0)
  %28 = icmp ne i32 %27, 0
  br i1 %28, label %29, label %30

29:                                               ; preds = %23
  store i32 1, ptr %5, align 4
  store i32 1, ptr %12, align 4
  br label %118

30:                                               ; preds = %23
  call void @llvm.lifetime.start.p0(i64 8, ptr %14) #5
  %31 = load ptr, ptr %10, align 8, !tbaa !24
  %32 = getelementptr inbounds nuw %struct.UserData, ptr %31, i32 0, i32 3
  %33 = load double, ptr %32, align 8, !tbaa !14
  %34 = load ptr, ptr %10, align 8, !tbaa !24
  %35 = getelementptr inbounds nuw %struct.UserData, ptr %34, i32 0, i32 1
  %36 = load double, ptr %35, align 8, !tbaa !12
  %37 = load ptr, ptr %10, align 8, !tbaa !24
  %38 = getelementptr inbounds nuw %struct.UserData, ptr %37, i32 0, i32 1
  %39 = load double, ptr %38, align 8, !tbaa !12
  %40 = fmul double %36, %39
  %41 = fdiv double %33, %40
  store double %41, ptr %14, align 8, !tbaa !4
  %42 = load double, ptr %14, align 8, !tbaa !4
  %43 = load ptr, ptr %10, align 8, !tbaa !24
  %44 = getelementptr inbounds nuw %struct.UserData, ptr %43, i32 0, i32 5
  %45 = load double, ptr %44, align 8, !tbaa !16
  %46 = load ptr, ptr %11, align 8, !tbaa !37
  %47 = getelementptr inbounds double, ptr %46, i64 0
  %48 = load double, ptr %47, align 8, !tbaa !4
  %49 = call double @llvm.fmuladd.f64(double -2.000000e+00, double %48, double %45)
  %50 = load ptr, ptr %11, align 8, !tbaa !37
  %51 = getelementptr inbounds double, ptr %50, i64 1
  %52 = load double, ptr %51, align 8, !tbaa !4
  %53 = fadd double %49, %52
  %54 = fmul double %42, %53
  %55 = load ptr, ptr %13, align 8, !tbaa !37
  %56 = getelementptr inbounds double, ptr %55, i64 0
  store double %54, ptr %56, align 8, !tbaa !4
  call void @llvm.lifetime.start.p0(i64 8, ptr %15) #5
  store i64 1, ptr %15, align 8, !tbaa !8
  br label %57

57:                                               ; preds = %87, %30
  %58 = load i64, ptr %15, align 8, !tbaa !8
  %59 = load ptr, ptr %10, align 8, !tbaa !24
  %60 = getelementptr inbounds nuw %struct.UserData, ptr %59, i32 0, i32 0
  %61 = load i64, ptr %60, align 8, !tbaa !10
  %62 = sub nsw i64 %61, 1
  %63 = icmp slt i64 %58, %62
  br i1 %63, label %65, label %64

64:                                               ; preds = %57
  store i32 2, ptr %12, align 4
  call void @llvm.lifetime.end.p0(i64 8, ptr %15) #5
  br label %90

65:                                               ; preds = %57
  %66 = load double, ptr %14, align 8, !tbaa !4
  %67 = load ptr, ptr %11, align 8, !tbaa !37
  %68 = load i64, ptr %15, align 8, !tbaa !8
  %69 = add nsw i64 %68, 1
  %70 = getelementptr inbounds double, ptr %67, i64 %69
  %71 = load double, ptr %70, align 8, !tbaa !4
  %72 = load ptr, ptr %11, align 8, !tbaa !37
  %73 = load i64, ptr %15, align 8, !tbaa !8
  %74 = getelementptr inbounds double, ptr %72, i64 %73
  %75 = load double, ptr %74, align 8, !tbaa !4
  %76 = call double @llvm.fmuladd.f64(double -2.000000e+00, double %75, double %71)
  %77 = load ptr, ptr %11, align 8, !tbaa !37
  %78 = load i64, ptr %15, align 8, !tbaa !8
  %79 = sub nsw i64 %78, 1
  %80 = getelementptr inbounds double, ptr %77, i64 %79
  %81 = load double, ptr %80, align 8, !tbaa !4
  %82 = fadd double %76, %81
  %83 = fmul double %66, %82
  %84 = load ptr, ptr %13, align 8, !tbaa !37
  %85 = load i64, ptr %15, align 8, !tbaa !8
  %86 = getelementptr inbounds double, ptr %84, i64 %85
  store double %83, ptr %86, align 8, !tbaa !4
  br label %87

87:                                               ; preds = %65
  %88 = load i64, ptr %15, align 8, !tbaa !8
  %89 = add nsw i64 %88, 1
  store i64 %89, ptr %15, align 8, !tbaa !8
  br label %57

90:                                               ; preds = %64
  %91 = load double, ptr %14, align 8, !tbaa !4
  %92 = load ptr, ptr %11, align 8, !tbaa !37
  %93 = load ptr, ptr %10, align 8, !tbaa !24
  %94 = getelementptr inbounds nuw %struct.UserData, ptr %93, i32 0, i32 0
  %95 = load i64, ptr %94, align 8, !tbaa !10
  %96 = sub nsw i64 %95, 2
  %97 = getelementptr inbounds double, ptr %92, i64 %96
  %98 = load double, ptr %97, align 8, !tbaa !4
  %99 = load ptr, ptr %11, align 8, !tbaa !37
  %100 = load ptr, ptr %10, align 8, !tbaa !24
  %101 = getelementptr inbounds nuw %struct.UserData, ptr %100, i32 0, i32 0
  %102 = load i64, ptr %101, align 8, !tbaa !10
  %103 = sub nsw i64 %102, 1
  %104 = getelementptr inbounds double, ptr %99, i64 %103
  %105 = load double, ptr %104, align 8, !tbaa !4
  %106 = call double @llvm.fmuladd.f64(double -2.000000e+00, double %105, double %98)
  %107 = load ptr, ptr %10, align 8, !tbaa !24
  %108 = getelementptr inbounds nuw %struct.UserData, ptr %107, i32 0, i32 5
  %109 = load double, ptr %108, align 8, !tbaa !16
  %110 = fadd double %106, %109
  %111 = fmul double %91, %110
  %112 = load ptr, ptr %13, align 8, !tbaa !37
  %113 = load ptr, ptr %10, align 8, !tbaa !24
  %114 = getelementptr inbounds nuw %struct.UserData, ptr %113, i32 0, i32 0
  %115 = load i64, ptr %114, align 8, !tbaa !10
  %116 = sub nsw i64 %115, 1
  %117 = getelementptr inbounds double, ptr %112, i64 %116
  store double %111, ptr %117, align 8, !tbaa !4
  store i32 0, ptr %5, align 4
  store i32 1, ptr %12, align 4
  call void @llvm.lifetime.end.p0(i64 8, ptr %14) #5
  br label %118

118:                                              ; preds = %90, %29
  call void @llvm.lifetime.end.p0(i64 8, ptr %13) #5
  br label %119

119:                                              ; preds = %118, %22
  call void @llvm.lifetime.end.p0(i64 8, ptr %11) #5
  call void @llvm.lifetime.end.p0(i64 8, ptr %10) #5
  %120 = load i32, ptr %5, align 4
  ret i32 %120
}