; Function Attrs: nounwind uwtable
define internal range(i32 0, 2) i32 @f_diffusion(double %0, ptr noundef %1, ptr noundef %2, ptr noundef readonly captures(none) %3) #0 {
  %5 = tail call ptr @N_VGetArrayPointer(ptr noundef %1) #8
  %6 = icmp eq ptr %5, null
  br i1 %6, label %check_flag.exit, label %9

check_flag.exit:                                  ; preds = %4
  %7 = load ptr, ptr @stderr, align 8, !tbaa !15
  %8 = tail call i32 (ptr, ptr, ...) @fprintf(ptr noundef %7, ptr noundef nonnull @.str.31, ptr noundef nonnull @.str.30) #9
  br label %53

9:                                                ; preds = %4
  %10 = tail call ptr @N_VGetArrayPointer(ptr noundef %2) #8
  %11 = icmp eq ptr %10, null
  br i1 %11, label %check_flag.exit37, label %14

check_flag.exit37:                                ; preds = %9
  %12 = load ptr, ptr @stderr, align 8, !tbaa !15
  %13 = tail call i32 (ptr, ptr, ...) @fprintf(ptr noundef %12, ptr noundef nonnull @.str.31, ptr noundef nonnull @.str.30) #9
  br label %53

14:                                               ; preds = %9
  %15 = getelementptr inbounds nuw i8, ptr %3, i64 24
  %16 = load double, ptr %15, align 8, !tbaa !12
  %17 = getelementptr inbounds nuw i8, ptr %3, i64 8
  %18 = load double, ptr %17, align 8, !tbaa !10
  %19 = fmul double %18, %18
  %20 = fdiv double %16, %19
  %21 = getelementptr inbounds nuw i8, ptr %3, i64 40
  %22 = load double, ptr %21, align 8, !tbaa !14
  %23 = load double, ptr %5, align 8, !tbaa !23
  %24 = tail call double @llvm.fmuladd.f64(double %23, double -2.000000e+00, double %22)
  %25 = getelementptr inbounds nuw i8, ptr %5, i64 8
  %26 = load double, ptr %25, align 8, !tbaa !23
  %27 = fadd double %24, %26
  %28 = fmul double %20, %27
  store double %28, ptr %10, align 8, !tbaa !23
  %29 = load i64, ptr %3, align 8, !tbaa !4
  %30 = add i64 %29, -1
  %31 = icmp sgt i64 %29, 2
  br i1 %31, label %.lr.ph, label %._crit_edge

._crit_edge:                                      ; preds = %.lr.ph, %14
  %32 = getelementptr double, ptr %5, i64 %29
  %33 = getelementptr i8, ptr %32, i64 -16
  %34 = load double, ptr %33, align 8, !tbaa !23
  %35 = getelementptr inbounds double, ptr %5, i64 %30
  %36 = load double, ptr %35, align 8, !tbaa !23
  %37 = tail call double @llvm.fmuladd.f64(double %36, double -2.000000e+00, double %34)
  %38 = load double, ptr %21, align 8, !tbaa !14
  %39 = fadd double %37, %38
  %40 = fmul double %20, %39
  %41 = getelementptr inbounds double, ptr %10, i64 %30
  store double %40, ptr %41, align 8, !tbaa !23
  br label %53

.lr.ph:                                           ; preds = %14, %.lr.ph
  %.043 = phi i64 [ %42, %.lr.ph ], [ 1, %14 ]
  %42 = add nuw nsw i64 %.043, 1
  %43 = getelementptr inbounds nuw double, ptr %5, i64 %42
  %44 = load double, ptr %43, align 8, !tbaa !23
  %45 = getelementptr inbounds nuw double, ptr %5, i64 %.043
  %46 = load double, ptr %45, align 8, !tbaa !23
  %47 = tail call double @llvm.fmuladd.f64(double %46, double -2.000000e+00, double %44)
  %48 = getelementptr i8, ptr %45, i64 -8
  %49 = load double, ptr %48, align 8, !tbaa !23
  %50 = fadd double %47, %49
  %51 = fmul double %20, %50
  %52 = getelementptr inbounds nuw double, ptr %10, i64 %.043
  store double %51, ptr %52, align 8, !tbaa !23
  %exitcond.not = icmp eq i64 %42, %30
  br i1 %exitcond.not, label %._crit_edge, label %.lr.ph

53:                                               ; preds = %check_flag.exit37, %check_flag.exit, %._crit_edge
  %.033 = phi i32 [ 1, %check_flag.exit ], [ 0, %._crit_edge ], [ 1, %check_flag.exit37 ]
  ret i32 %.033
}